; Function Attrs: nounwind uwtable
define internal noundef i32 @expire_unreachable_callback(ptr noundef readonly captures(none) %0, ptr noundef %1, i32 noundef %2) #0 {
  %4 = getelementptr inbounds nuw i8, ptr %0, i64 16
  %5 = load ptr, ptr %4, align 8, !tbaa !15
  %.not = icmp eq i32 %2, 0
  br i1 %.not, label %7, label %6

6:                                                ; preds = %3
  tail call void (ptr, i32, ptr, ...) @BUG_fl(ptr noundef nonnull @.str.30, i32 noundef 212, ptr noundef nonnull @.str.31) #15
  unreachable

7:                                                ; preds = %3
  %8 = getelementptr inbounds nuw i8, ptr %5, i64 16
  %9 = tail call i32 @parse_expiry_date(ptr noundef %1, ptr noundef nonnull %8) #13
  %.not6 = icmp eq i32 %9, 0
  br i1 %.not6, label %14, label %10

10:                                               ; preds = %7
  %11 = tail call fastcc ptr @_(ptr noundef nonnull @.str.32)
  %12 = getelementptr inbounds nuw i8, ptr %0, i64 8
  %13 = load ptr, ptr %12, align 8, !tbaa !14
  tail call void (ptr, ...) @die(ptr noundef %11, ptr noundef %1, ptr noundef %13) #15
  unreachable

14:                                               ; preds = %7
  %15 = getelementptr inbounds nuw i8, ptr %5, i64 4
  %16 = load i32, ptr %15, align 4, !tbaa !29
  %17 = or i32 %16, 2
  store i32 %17, ptr %15, align 4, !tbaa !29
  ret i32 0
}